; Function Attrs: mustprogress uwtable
define noundef ptr @grpc_metadata_credentials_create_from_plugin(ptr nocapture noundef readonly byval(%struct.grpc_metadata_credentials_plugin) align 8 %plugin, i32 noundef %min_security_level, ptr noundef %reserved) local_unnamed_addr #6 personality ptr @__gxx_personality_v0 {
entry:
  %0 = load atomic i8, ptr getelementptr inbounds (%"class.grpc_core::TraceFlag", ptr @grpc_api_trace, i64 0, i32 2, i32 0, i32 0) monotonic, align 8
  %1 = and i8 %0, 1
  %tobool.i.i.i.not = icmp eq i8 %1, 0
  br i1 %tobool.i.i.i.not, label %do.body, label %if.then

if.then:                                          ; preds = %entry
  tail call void (ptr, i32, i32, ptr, ...) @gpr_log(ptr noundef nonnull @.str.6, i32 noundef 211, i32 noundef 1, ptr noundef nonnull @.str.14, ptr noundef %reserved)
  br label %do.body

do.body:                                          ; preds = %entry, %if.then
  %cmp.not = icmp eq ptr %reserved, null
  br i1 %cmp.not, label %do.end, label %if.then1

if.then1:                                         ; preds = %do.body
  tail call void @gpr_assertion_failed(ptr noundef nonnull @.str.6, i32 noundef 212, ptr noundef nonnull @.str.15) #26
  unreachable

do.end:                                           ; preds = %do.body
  %call3 = tail call noalias noundef nonnull dereferenceable(64) ptr @_Znwm(i64 noundef 64) #25
  invoke void @_ZN23grpc_plugin_credentialsC1E32grpc_metadata_credentials_plugin19grpc_security_level(ptr noundef nonnull align 8 dereferenceable(64) %call3, ptr noundef nonnull byval(%struct.grpc_metadata_credentials_plugin) align 8 %plugin, i32 noundef %min_security_level)
          to label %invoke.cont unwind label %lpad

invoke.cont:                                      ; preds = %do.end
  ret ptr %call3

lpad:                                             ; preds = %do.end
  %2 = landingpad { ptr, i32 }
          cleanup
  tail call void @_ZdlPv(ptr noundef nonnull %call3) #24
  resume { ptr, i32 } %2
}